; Function Attrs: mustprogress nofree norecurse nosync nounwind willreturn memory(argmem: read) uwtable
define noundef range(i32 0, 2) i32 @_ZN6LibRaw12is_canon_600Ev(ptr noundef nonnull readonly align 8 captures(none) dereferenceable(767680) %0) unnamed_addr #12 align 2 {
  %2 = getelementptr inbounds nuw i8, ptr %0, i64 767584
  %.unpack = load i64, ptr %2, align 8, !tbaa !103
  %.elt1 = getelementptr inbounds nuw i8, ptr %0, i64 767592
  %.unpack2 = load i64, ptr %.elt1, align 8, !tbaa !103
  %3 = icmp eq i64 %.unpack, ptrtoint (ptr @_ZN6LibRaw18canon_600_load_rawEv to i64)
  %4 = icmp eq i64 %.unpack2, 0
  %5 = and i1 %3, %4
  %6 = zext i1 %5 to i32
  ret i32 %6
}